; Function Attrs: mustprogress uwtable
define internal void @_ZL24pj_vgridshift_forward_4dR8PJ_COORDP8PJconsts(ptr nocapture noundef nonnull align 8 dereferenceable(32) %0, ptr noundef %1) #3 {
  %3 = alloca %struct.PJ_XYZ, align 8
  %4 = alloca %struct.PJ_XYZ, align 8
  %5 = getelementptr inbounds i8, ptr %1, i64 88
  %6 = load ptr, ptr %5, align 8
  %7 = load double, ptr %6, align 8
  %8 = fcmp oeq double %7, 0.000000e+00
  br i1 %8, label %.sink.split, label %9

9:                                                ; preds = %2
  %10 = getelementptr inbounds i8, ptr %6, i64 8
  %11 = load double, ptr %10, align 8
  %12 = fcmp oeq double %11, 0.000000e+00
  br i1 %12, label %.sink.split, label %13

13:                                               ; preds = %9
  %14 = getelementptr inbounds i8, ptr %0, i64 24
  %15 = load double, ptr %14, align 8
  %16 = fcmp olt double %15, %11
  %17 = fcmp ogt double %7, %11
  %or.cond = and i1 %17, %16
  br i1 %or.cond, label %.sink.split, label %18

.sink.split:                                      ; preds = %13, %2, %9
  %.sink14 = phi ptr [ %3, %9 ], [ %3, %2 ], [ %4, %13 ]
  call void @_ZL24pj_vgridshift_forward_3d6PJ_LPZP8PJconsts(ptr dead_on_unwind nonnull writable sret(%struct.PJ_XYZ) align 8 %.sink14, ptr noundef nonnull byval(%struct.PJ_LPZ) align 8 %0, ptr noundef nonnull %1)
  call void @llvm.memcpy.p0.p0.i64(ptr noundef nonnull align 8 dereferenceable(24) %0, ptr noundef nonnull align 8 dereferenceable(24) %.sink14, i64 24, i1 false)
  br label %18

18:                                               ; preds = %.sink.split, %13
  ret void
}